; Function Attrs: nounwind uwtable
define ptr @l_Lean_Elab_Tactic_GuardExpr_colonEq_toMatchKind(ptr noundef %0) local_unnamed_addr #0 {
  %2 = load ptr, ptr @l_Lean_Elab_Tactic_GuardExpr_colonEq_toMatchKind___closed__2, align 8, !tbaa !4
  %3 = ptrtoint ptr %0 to i64
  %4 = and i64 %3, 1
  %.not = icmp eq i64 %4, 0
  br i1 %.not, label %5, label %lean_inc.exit34.thread

5:                                                ; preds = %1
  %.val.i = load i32, ptr %0, align 4, !tbaa !8
  %6 = icmp sgt i32 %.val.i, 0
  br i1 %6, label %7, label %9, !prof !11

7:                                                ; preds = %5
  %8 = add nuw i32 %.val.i, 1
  store i32 %8, ptr %0, align 4, !tbaa !8
  br label %lean_inc.exit34

9:                                                ; preds = %5
  %.not.i47 = icmp eq i32 %.val.i, 0
  br i1 %.not.i47, label %lean_inc.exit34, label %10

10:                                               ; preds = %9
  tail call void @lean_inc_ref_cold(ptr noundef nonnull %0) #4
  br label %lean_inc.exit34

lean_inc.exit34:                                  ; preds = %10, %9, %7
  %11 = tail call zeroext i8 @l_Lean_Syntax_isOfKind(ptr noundef nonnull %0, ptr noundef %2) #4
  %12 = icmp eq i8 %11, 0
  br i1 %12, label %16, label %23

lean_inc.exit34.thread:                           ; preds = %1
  %13 = tail call zeroext i8 @l_Lean_Syntax_isOfKind(ptr noundef %0, ptr noundef %2) #4
  %14 = icmp eq i8 %13, 0
  br i1 %14, label %lean_dec.exit38, label %.thread57

.thread57:                                        ; preds = %lean_inc.exit34.thread
  %15 = tail call ptr @l_Lean_Syntax_getArg(ptr noundef %0, ptr noundef nonnull inttoptr (i64 1 to ptr)) #4
  br label %lean_dec.exit37

16:                                               ; preds = %lean_inc.exit34
  %17 = load i32, ptr %0, align 4, !tbaa !8
  %18 = icmp sgt i32 %17, 1
  br i1 %18, label %19, label %21, !prof !11

19:                                               ; preds = %16
  %20 = add nsw i32 %17, -1
  store i32 %20, ptr %0, align 4, !tbaa !8
  br label %lean_dec.exit38

21:                                               ; preds = %16
  %.not.i = icmp eq i32 %17, 0
  br i1 %.not.i, label %lean_dec.exit38, label %22

22:                                               ; preds = %21
  tail call void @lean_dec_ref_cold(ptr noundef nonnull %0) #4
  br label %lean_dec.exit38

23:                                               ; preds = %lean_inc.exit34
  %24 = tail call ptr @l_Lean_Syntax_getArg(ptr noundef nonnull %0, ptr noundef nonnull inttoptr (i64 1 to ptr)) #4
  %25 = load i32, ptr %0, align 4, !tbaa !8
  %26 = icmp sgt i32 %25, 1
  br i1 %26, label %27, label %29, !prof !11

27:                                               ; preds = %23
  %28 = add nsw i32 %25, -1
  store i32 %28, ptr %0, align 4, !tbaa !8
  br label %lean_dec.exit37

29:                                               ; preds = %23
  %.not.i39 = icmp eq i32 %25, 0
  br i1 %.not.i39, label %lean_dec.exit37, label %30

30:                                               ; preds = %29
  tail call void @lean_dec_ref_cold(ptr noundef nonnull %0) #4
  br label %lean_dec.exit37

lean_dec.exit37:                                  ; preds = %30, %29, %27, %.thread57
  %31 = phi ptr [ %15, %.thread57 ], [ %24, %27 ], [ %24, %29 ], [ %24, %30 ]
  %32 = load ptr, ptr @l_Lean_Elab_Tactic_GuardExpr_colonEq_toMatchKind___closed__4, align 8, !tbaa !4
  %33 = ptrtoint ptr %31 to i64
  %34 = and i64 %33, 1
  %.not61 = icmp eq i64 %34, 0
  br i1 %.not61, label %35, label %lean_inc.exit33.thread

35:                                               ; preds = %lean_dec.exit37
  %.val.i48 = load i32, ptr %31, align 4, !tbaa !8
  %36 = icmp sgt i32 %.val.i48, 0
  br i1 %36, label %37, label %39, !prof !11

37:                                               ; preds = %35
  %38 = add nuw i32 %.val.i48, 1
  store i32 %38, ptr %31, align 4, !tbaa !8
  br label %lean_inc.exit33

39:                                               ; preds = %35
  %.not.i49 = icmp eq i32 %.val.i48, 0
  br i1 %.not.i49, label %lean_inc.exit33, label %40

40:                                               ; preds = %39
  tail call void @lean_inc_ref_cold(ptr noundef nonnull %31) #4
  br label %lean_inc.exit33

lean_inc.exit33:                                  ; preds = %40, %39, %37
  %41 = tail call zeroext i8 @l_Lean_Syntax_isOfKind(ptr noundef nonnull %31, ptr noundef %32) #4
  %42 = icmp eq i8 %41, 0
  br i1 %42, label %45, label %91

lean_inc.exit33.thread:                           ; preds = %lean_dec.exit37
  %43 = tail call zeroext i8 @l_Lean_Syntax_isOfKind(ptr noundef %31, ptr noundef %32) #4
  %44 = icmp eq i8 %43, 0
  br i1 %44, label %lean_inc.exit32.thread, label %lean_dec.exit

45:                                               ; preds = %lean_inc.exit33
  %46 = load ptr, ptr @l_Lean_Elab_Tactic_GuardExpr_colonEq_toMatchKind___closed__6, align 8, !tbaa !4
  %.val.i51 = load i32, ptr %31, align 4, !tbaa !8
  %47 = icmp sgt i32 %.val.i51, 0
  br i1 %47, label %48, label %50, !prof !11

48:                                               ; preds = %45
  %49 = add nuw i32 %.val.i51, 1
  store i32 %49, ptr %31, align 4, !tbaa !8
  br label %lean_inc.exit32

50:                                               ; preds = %45
  %.not.i52 = icmp eq i32 %.val.i51, 0
  br i1 %.not.i52, label %lean_inc.exit32, label %51

51:                                               ; preds = %50
  tail call void @lean_inc_ref_cold(ptr noundef nonnull %31) #4
  br label %lean_inc.exit32

lean_inc.exit32:                                  ; preds = %51, %50, %48
  %52 = tail call zeroext i8 @l_Lean_Syntax_isOfKind(ptr noundef nonnull %31, ptr noundef %46) #4
  %53 = icmp eq i8 %52, 0
  br i1 %53, label %57, label %83

lean_inc.exit32.thread:                           ; preds = %lean_inc.exit33.thread
  %54 = load ptr, ptr @l_Lean_Elab_Tactic_GuardExpr_colonEq_toMatchKind___closed__6, align 8, !tbaa !4
  %55 = tail call zeroext i8 @l_Lean_Syntax_isOfKind(ptr noundef %31, ptr noundef %54) #4
  %56 = icmp eq i8 %55, 0
  br i1 %56, label %lean_inc.exit.thread, label %lean_dec.exit35

57:                                               ; preds = %lean_inc.exit32
  %58 = load ptr, ptr @l_Lean_Elab_Tactic_GuardExpr_colonEq_toMatchKind___closed__8, align 8, !tbaa !4
  %.val.i54 = load i32, ptr %31, align 4, !tbaa !8
  %59 = icmp sgt i32 %.val.i54, 0
  br i1 %59, label %60, label %62, !prof !11

60:                                               ; preds = %57
  %61 = add nuw i32 %.val.i54, 1
  store i32 %61, ptr %31, align 4, !tbaa !8
  br label %lean_inc.exit

62:                                               ; preds = %57
  %.not.i55 = icmp eq i32 %.val.i54, 0
  br i1 %.not.i55, label %lean_inc.exit, label %63

63:                                               ; preds = %62
  tail call void @lean_inc_ref_cold(ptr noundef nonnull %31) #4
  br label %lean_inc.exit

lean_inc.exit:                                    ; preds = %63, %62, %60
  %64 = tail call zeroext i8 @l_Lean_Syntax_isOfKind(ptr noundef nonnull %31, ptr noundef %58) #4
  %65 = icmp eq i8 %64, 0
  br i1 %65, label %69, label %75

lean_inc.exit.thread:                             ; preds = %lean_inc.exit32.thread
  %66 = load ptr, ptr @l_Lean_Elab_Tactic_GuardExpr_colonEq_toMatchKind___closed__8, align 8, !tbaa !4
  %67 = tail call zeroext i8 @l_Lean_Syntax_isOfKind(ptr noundef %31, ptr noundef %66) #4
  %68 = icmp eq i8 %67, 0
  br i1 %68, label %69, label %lean_dec.exit36

69:                                               ; preds = %lean_inc.exit.thread, %lean_inc.exit
  %70 = load ptr, ptr @l_Lean_Elab_Tactic_GuardExpr_colonEq_toMatchKind___closed__10, align 8, !tbaa !4
  %71 = tail call zeroext i8 @l_Lean_Syntax_isOfKind(ptr noundef %31, ptr noundef %70) #4
  %72 = icmp eq i8 %71, 0
  br i1 %72, label %lean_dec.exit38, label %73

73:                                               ; preds = %69
  %74 = load ptr, ptr @l_Lean_Elab_Tactic_GuardExpr_colon_toMatchKind___closed__13, align 8, !tbaa !4
  br label %lean_dec.exit38

75:                                               ; preds = %lean_inc.exit
  %76 = load i32, ptr %31, align 4, !tbaa !8
  %77 = icmp sgt i32 %76, 1
  br i1 %77, label %78, label %80, !prof !11

78:                                               ; preds = %75
  %79 = add nsw i32 %76, -1
  store i32 %79, ptr %31, align 4, !tbaa !8
  br label %lean_dec.exit36

80:                                               ; preds = %75
  %.not.i41 = icmp eq i32 %76, 0
  br i1 %.not.i41, label %lean_dec.exit36, label %81

81:                                               ; preds = %80
  tail call void @lean_dec_ref_cold(ptr noundef nonnull %31) #4
  br label %lean_dec.exit36

lean_dec.exit36:                                  ; preds = %lean_inc.exit.thread, %81, %80, %78
  %82 = load ptr, ptr @l_Lean_Elab_Tactic_GuardExpr_colon_toMatchKind___closed__14, align 8, !tbaa !4
  br label %lean_dec.exit38

83:                                               ; preds = %lean_inc.exit32
  %84 = load i32, ptr %31, align 4, !tbaa !8
  %85 = icmp sgt i32 %84, 1
  br i1 %85, label %86, label %88, !prof !11

86:                                               ; preds = %83
  %87 = add nsw i32 %84, -1
  store i32 %87, ptr %31, align 4, !tbaa !8
  br label %lean_dec.exit35

88:                                               ; preds = %83
  %.not.i43 = icmp eq i32 %84, 0
  br i1 %.not.i43, label %lean_dec.exit35, label %89

89:                                               ; preds = %88
  tail call void @lean_dec_ref_cold(ptr noundef nonnull %31) #4
  br label %lean_dec.exit35

lean_dec.exit35:                                  ; preds = %lean_inc.exit32.thread, %89, %88, %86
  %90 = load ptr, ptr @l_Lean_Elab_Tactic_GuardExpr_colon_toMatchKind___closed__16, align 8, !tbaa !4
  br label %lean_dec.exit38

91:                                               ; preds = %lean_inc.exit33
  %92 = load i32, ptr %31, align 4, !tbaa !8
  %93 = icmp sgt i32 %92, 1
  br i1 %93, label %94, label %96, !prof !11

94:                                               ; preds = %91
  %95 = add nsw i32 %92, -1
  store i32 %95, ptr %31, align 4, !tbaa !8
  br label %lean_dec.exit

96:                                               ; preds = %91
  %.not.i45 = icmp eq i32 %92, 0
  br i1 %.not.i45, label %lean_dec.exit, label %97

97:                                               ; preds = %96
  tail call void @lean_dec_ref_cold(ptr noundef nonnull %31) #4
  br label %lean_dec.exit

lean_dec.exit:                                    ; preds = %lean_inc.exit33.thread, %97, %96, %94
  %98 = load ptr, ptr @l_Lean_Elab_Tactic_GuardExpr_colon_toMatchKind___closed__18, align 8, !tbaa !4
  br label %lean_dec.exit38

lean_dec.exit38:                                  ; preds = %lean_inc.exit34.thread, %69, %19, %21, %22, %lean_dec.exit, %lean_dec.exit36, %73, %lean_dec.exit35
  %.0 = phi ptr [ %98, %lean_dec.exit ], [ %90, %lean_dec.exit35 ], [ %82, %lean_dec.exit36 ], [ %74, %73 ], [ inttoptr (i64 1 to ptr), %22 ], [ inttoptr (i64 1 to ptr), %21 ], [ inttoptr (i64 1 to ptr), %19 ], [ inttoptr (i64 1 to ptr), %69 ], [ inttoptr (i64 1 to ptr), %lean_inc.exit34.thread ]
  ret ptr %.0
}